; Function Attrs: mustprogress uwtable
define hidden void @_ZN4lean14name_generator9next_withERKNS_4nameE(ptr dead_on_unwind noalias writable sret(%"class.lean::name") align 8 %0, ptr noundef nonnull align 8 dereferenceable(12) %1, ptr noundef nonnull align 8 dereferenceable(8) %2) local_unnamed_addr #0 align 2 personality ptr @__gxx_personality_v0 {
  %4 = alloca %"class.lean::name", align 8
  %5 = alloca %"class.lean::name", align 8
  call void @llvm.lifetime.start.p0(i64 8, ptr nonnull %5) #16
  %6 = getelementptr inbounds nuw i8, ptr %1, i64 8
  %7 = load i32, ptr %6, align 8, !tbaa !12, !noalias !17
  %8 = icmp eq i32 %7, -1
  br i1 %8, label %9, label %_ZN4lean14name_generator4nextEv.exit

9:                                                ; preds = %3
  call void @llvm.lifetime.start.p0(i64 8, ptr nonnull %4) #16, !noalias !17
  call void @_ZN4lean4nameC1ERKS0_j(ptr noundef nonnull align 8 dereferenceable(8) %4, ptr noundef nonnull align 8 dereferenceable(12) %1, i32 noundef -1), !noalias !17
  %10 = load ptr, ptr %1, align 8, !tbaa !3, !noalias !17
  %11 = ptrtoint ptr %10 to i64
  %12 = and i64 %11, 1
  %.not.i.i.i.i = icmp eq i64 %12, 0
  br i1 %.not.i.i.i.i, label %13, label %_ZN4lean10object_refD2Ev.exit.i

13:                                               ; preds = %9
  %14 = load i32, ptr %10, align 4, !tbaa !8, !noalias !17
  %15 = icmp sgt i32 %14, 1
  br i1 %15, label %16, label %18, !prof !11

16:                                               ; preds = %13
  %17 = add nsw i32 %14, -1
  store i32 %17, ptr %10, align 4, !tbaa !8, !noalias !17
  br label %_ZN4lean10object_refD2Ev.exit.i

18:                                               ; preds = %13
  %.not.i.i.i.i.i = icmp eq i32 %14, 0
  br i1 %.not.i.i.i.i.i, label %_ZN4lean10object_refD2Ev.exit.i, label %19

19:                                               ; preds = %18
  invoke void @lean_dec_ref_cold(ptr noundef nonnull %10)
          to label %_ZN4lean10object_refD2Ev.exit.i unwind label %21, !noalias !17

_ZN4lean10object_refD2Ev.exit.i:                  ; preds = %19, %18, %16, %9
  %20 = load ptr, ptr %4, align 8, !tbaa !3, !noalias !17
  store ptr %20, ptr %1, align 8, !tbaa !3, !noalias !17
  call void @llvm.lifetime.end.p0(i64 8, ptr nonnull %4) #16, !noalias !17
  store i32 0, ptr %6, align 8, !tbaa !12, !noalias !17
  br label %_ZN4lean14name_generator4nextEv.exit

common.resume:                                    ; preds = %40, %21
  %common.resume.op = phi { ptr, i32 } [ %22, %21 ], [ %41, %40 ]
  resume { ptr, i32 } %common.resume.op

21:                                               ; preds = %19
  %22 = landingpad { ptr, i32 }
          cleanup
  call void @_ZN4lean10object_refD2Ev(ptr noundef nonnull align 8 dereferenceable(8) %4) #16, !noalias !17
  call void @llvm.lifetime.end.p0(i64 8, ptr nonnull %4) #16, !noalias !17
  br label %common.resume

_ZN4lean14name_generator4nextEv.exit:             ; preds = %3, %_ZN4lean10object_refD2Ev.exit.i
  %23 = phi i32 [ 0, %_ZN4lean10object_refD2Ev.exit.i ], [ %7, %3 ]
  call void @_ZN4lean4nameC1ERKS0_j(ptr noundef nonnull align 8 dereferenceable(8) %5, ptr noundef nonnull align 8 dereferenceable(12) %1, i32 noundef %23)
  %24 = load i32, ptr %6, align 8, !tbaa !12, !noalias !17
  %25 = add i32 %24, 1
  store i32 %25, ptr %6, align 8, !tbaa !12, !noalias !17
  invoke fastcc void @_ZN4leanL19replace_base_prefixERKNS_4nameES2_(ptr dead_on_unwind noalias writable align 8 %0, ptr noundef nonnull align 8 dereferenceable(8) %5, ptr noundef nonnull align 8 dereferenceable(8) %2)
          to label %26 unwind label %40

26:                                               ; preds = %_ZN4lean14name_generator4nextEv.exit
  %27 = load ptr, ptr %5, align 8, !tbaa !3
  %28 = ptrtoint ptr %27 to i64
  %29 = and i64 %28, 1
  %.not.i.i = icmp eq i64 %29, 0
  br i1 %.not.i.i, label %30, label %_ZN4lean10object_refD2Ev.exit

30:                                               ; preds = %26
  %31 = load i32, ptr %27, align 4, !tbaa !8
  %32 = icmp sgt i32 %31, 1
  br i1 %32, label %33, label %35, !prof !11

33:                                               ; preds = %30
  %34 = add nsw i32 %31, -1
  store i32 %34, ptr %27, align 4, !tbaa !8
  br label %_ZN4lean10object_refD2Ev.exit

35:                                               ; preds = %30
  %.not.i.i.i = icmp eq i32 %31, 0
  br i1 %.not.i.i.i, label %_ZN4lean10object_refD2Ev.exit, label %36

36:                                               ; preds = %35
  invoke void @lean_dec_ref_cold(ptr noundef nonnull %27)
          to label %_ZN4lean10object_refD2Ev.exit unwind label %37

37:                                               ; preds = %36
  %38 = landingpad { ptr, i32 }
          catch ptr null
  %39 = extractvalue { ptr, i32 } %38, 0
  call void @__clang_call_terminate(ptr %39) #17
  unreachable

_ZN4lean10object_refD2Ev.exit:                    ; preds = %26, %33, %35, %36
  call void @llvm.lifetime.end.p0(i64 8, ptr nonnull %5) #16
  ret void

40:                                               ; preds = %_ZN4lean14name_generator4nextEv.exit
  %41 = landingpad { ptr, i32 }
          cleanup
  call void @_ZN4lean10object_refD2Ev(ptr noundef nonnull align 8 dereferenceable(8) %5) #16
  call void @llvm.lifetime.end.p0(i64 8, ptr nonnull %5) #16
  br label %common.resume
}